; Function Attrs: mustprogress nounwind uwtable
define internal void @_ZN12_GLOBAL__N_124OSLogFormatStringHandlerD2Ev(ptr noundef nonnull align 8 dereferenceable(424) %0) unnamed_addr #0 align 2 {
  store ptr getelementptr inbounds inrange(-16, 128) (i8, ptr @_ZTVN12_GLOBAL__N_124OSLogFormatStringHandlerE, i64 16), ptr %0, align 8
  %2 = getelementptr inbounds nuw i8, ptr %0, i64 8
  %3 = tail call noundef i64 @_ZNK4llvm15SmallVectorBaseIjE4sizeEv(ptr noundef nonnull align 8 dereferenceable(16) %2) #9
  %4 = load ptr, ptr %2, align 8
  %5 = getelementptr inbounds i8, ptr %0, i64 24
  %6 = icmp eq ptr %4, %5
  br i1 %6, label %_ZN4llvm11SmallVectorIN12_GLOBAL__N_124OSLogFormatStringHandler7ArgDataELj4EED2Ev.exit, label %7

7:                                                ; preds = %1
  tail call void @free(ptr noundef %4) #9
  br label %_ZN4llvm11SmallVectorIN12_GLOBAL__N_124OSLogFormatStringHandler7ArgDataELj4EED2Ev.exit

_ZN4llvm11SmallVectorIN12_GLOBAL__N_124OSLogFormatStringHandler7ArgDataELj4EED2Ev.exit: ; preds = %1, %7
  tail call void @_ZN5clang21analyze_format_string19FormatStringHandlerD2Ev(ptr noundef nonnull align 8 dereferenceable(8) %0) #9
  ret void
}